target datalayout = "e-m:e-p270:32:32-p271:32:32-p272:64:64-i64:64-i128:128-f80:128-n8:16:32:64-S128"
target triple = "x86_64-pc-linux-gnu"

%struct.mq = type { ptr, i32, i32, ptr, ptr, i64, ptr, i64, ptr, i64, ptr, i8, ptr, ptr, [10 x %struct.mq_item] }
%struct.mq_item = type { i32, i64, i64 }
%struct.mpv_counter_info = type { i64, i32, i32, i32, i32 }
%struct.mpv_decomp_state = type { i32, i8, i64, [0 x %struct.mpv_decomp_kilo] }
%struct.mpv_decomp_kilo = type { i64, ptr }
%struct.mpv = type { i32, i32, i32, i32, i32, i32, i32, i32, i32, [28 x i8] }
%struct.unaligned = type { i64 }

; Function Attrs: alwaysinline nounwind uwtable
define internal void @unaligned_store_u64a(ptr noundef %0, i64 noundef %1) #2 {
  %3 = alloca ptr, align 8
  %4 = alloca i64, align 8
  %5 = alloca ptr, align 8
  store ptr %0, ptr %3, align 8
  store i64 %1, ptr %4, align 8
  call void @llvm.lifetime.start.p0(i64 8, ptr %5) #11
  %6 = load ptr, ptr %3, align 8
  store ptr %6, ptr %5, align 8
  %7 = load i64, ptr %4, align 8
  %8 = load ptr, ptr %5, align 8
  %9 = getelementptr inbounds nuw %struct.unaligned, ptr %8, i32 0, i32 0
  store i64 %7, ptr %9, align 1
  call void @llvm.lifetime.end.p0(i64 8, ptr %5) #11
  ret void
}

; Function Attrs: alwaysinline nounwind uwtable
define internal void @mmb_store(ptr noundef %0, i64 noundef %1) #2 {
  %3 = alloca ptr, align 8
  %4 = alloca i64, align 8
  store ptr %0, ptr %3, align 8
  store i64 %1, ptr %4, align 8
  %5 = load ptr, ptr %3, align 8
  %6 = load i64, ptr %4, align 8
  call void @unaligned_store_u64a(ptr noundef %5, i64 noundef %6)
  ret void
}

; Function Attrs: alwaysinline nounwind uwtable
define internal i32 @mmbit_flat_size(i32 noundef %0) #2 {
  %2 = alloca i32, align 4
  store i32 %0, ptr %2, align 4
  %3 = load i32, ptr %2, align 4
  %4 = add i32 %3, 7
  %5 = and i32 %4, -8
  %6 = udiv i32 %5, 8
  ret i32 %6
}

; Function Attrs: alwaysinline nounwind uwtable
define internal i32 @mmbit_is_flat_model(i32 noundef %0) #2 {
  %2 = alloca i32, align 4
  store i32 %0, ptr %2, align 4
  %3 = load i32, ptr %2, align 4
  %4 = icmp ule i32 %3, 256
  %5 = zext i1 %4 to i32
  ret i32 %5
}

; Function Attrs: alwaysinline nounwind uwtable
define internal ptr @get_counter_info(ptr noundef %0) #2 {
  %2 = alloca ptr, align 8
  store ptr %0, ptr %2, align 8
  %3 = load ptr, ptr %2, align 8
  %4 = getelementptr inbounds %struct.mpv, ptr %3, i64 1
  %5 = load ptr, ptr %2, align 8
  %6 = getelementptr inbounds nuw %struct.mpv, ptr %5, i32 0, i32 0
  %7 = load i32, ptr %6, align 32
  %8 = zext i32 %7 to i64
  %9 = mul i64 %8, 64
  %10 = getelementptr inbounds nuw i8, ptr %4, i64 %9
  ret ptr %10
}

; Function Attrs: alwaysinline nounwind uwtable
define internal void @mmbit_clear(ptr noundef %0, i32 noundef %1) #2 {
  %3 = alloca ptr, align 8
  %4 = alloca i32, align 4
  store ptr %0, ptr %3, align 8
  store i32 %1, ptr %4, align 4
  br label %5

5:                                                ; preds = %2
  br label %6

6:                                                ; preds = %5
  br label %7

7:                                                ; preds = %6
  br label %8

8:                                                ; preds = %7
  %9 = load i32, ptr %4, align 4
  %10 = icmp ne i32 %9, 0
  br i1 %10, label %12, label %11

11:                                               ; preds = %8
  br label %23

12:                                               ; preds = %8
  %13 = load i32, ptr %4, align 4
  %14 = call i32 @mmbit_is_flat_model(i32 noundef %13)
  %15 = icmp ne i32 %14, 0
  br i1 %15, label %16, label %21

16:                                               ; preds = %12
  %17 = load ptr, ptr %3, align 8
  %18 = load i32, ptr %4, align 4
  %19 = call i32 @mmbit_flat_size(i32 noundef %18)
  %20 = zext i32 %19 to i64
  call void @llvm.memset.p0.i64(ptr align 1 %17, i8 0, i64 %20, i1 false)
  br label %23

21:                                               ; preds = %12
  %22 = load ptr, ptr %3, align 8
  call void @mmb_store(ptr noundef %22, i64 noundef 0)
  br label %23

23:                                               ; preds = %21, %16, %11
  ret void
}

; Function Attrs: alwaysinline nounwind uwtable
define internal ptr @get_counter_n(ptr noundef %0, ptr noundef %1, i32 noundef %2) #2 {
  %4 = alloca ptr, align 8
  %5 = alloca ptr, align 8
  %6 = alloca i32, align 4
  store ptr %0, ptr %4, align 8
  store ptr %1, ptr %5, align 8
  store i32 %2, ptr %6, align 4
  %7 = load ptr, ptr %4, align 8
  %8 = load ptr, ptr %5, align 8
  %9 = call ptr @get_counter_info(ptr noundef %8)
  %10 = load i32, ptr %6, align 4
  %11 = zext i32 %10 to i64
  %12 = getelementptr inbounds nuw %struct.mpv_counter_info, ptr %9, i64 %11
  %13 = getelementptr inbounds nuw %struct.mpv_counter_info, ptr %12, i32 0, i32 2
  %14 = load i32, ptr %13, align 4
  %15 = zext i32 %14 to i64
  %16 = getelementptr inbounds nuw i8, ptr %7, i64 %15
  ret ptr %16
}

; Function Attrs: nounwind uwtable
define hidden signext i8 @nfaExecMpv_queueInitState(ptr noundef %0, ptr noundef %1) #0 {
  %3 = alloca ptr, align 8
  %4 = alloca ptr, align 8
  %5 = alloca ptr, align 8
  %6 = alloca ptr, align 8
  %7 = alloca ptr, align 8
  %8 = alloca i32, align 4
  %9 = alloca ptr, align 8
  %10 = alloca ptr, align 8
  store ptr %0, ptr %3, align 8
  store ptr %1, ptr %4, align 8
  call void @llvm.lifetime.start.p0(i64 8, ptr %5) #11
  %11 = load ptr, ptr %4, align 8
  %12 = getelementptr inbounds nuw %struct.mq, ptr %11, i32 0, i32 3
  %13 = load ptr, ptr %12, align 8
  store ptr %13, ptr %5, align 8
  call void @llvm.lifetime.start.p0(i64 8, ptr %6) #11
  %14 = load ptr, ptr %3, align 8
  %15 = getelementptr inbounds nuw i8, ptr %14, i64 64
  store ptr %15, ptr %6, align 8
  br label %16

16:                                               ; preds = %2
  br label %17

17:                                               ; preds = %16
  br label %18

18:                                               ; preds = %17
  call void @llvm.lifetime.start.p0(i64 8, ptr %7) #11
  %19 = load ptr, ptr %5, align 8
  %20 = load ptr, ptr %6, align 8
  %21 = call ptr @get_counter_n(ptr noundef %19, ptr noundef %20, i32 noundef 0)
  store ptr %21, ptr %7, align 8
  call void @llvm.lifetime.start.p0(i64 4, ptr %8) #11
  store i32 0, ptr %8, align 4
  br label %22

22:                                               ; preds = %34, %18
  %23 = load i32, ptr %8, align 4
  %24 = load ptr, ptr %6, align 8
  %25 = getelementptr inbounds nuw %struct.mpv, ptr %24, i32 0, i32 1
  %26 = load i32, ptr %25, align 4
  %27 = icmp ult i32 %23, %26
  br i1 %27, label %29, label %28

28:                                               ; preds = %22
  call void @llvm.lifetime.end.p0(i64 4, ptr %8) #11
  br label %37

29:                                               ; preds = %22
  %30 = load ptr, ptr %7, align 8
  %31 = load i32, ptr %8, align 4
  %32 = zext i32 %31 to i64
  %33 = getelementptr inbounds nuw i64, ptr %30, i64 %32
  store i64 -1, ptr %33, align 8
  br label %34

34:                                               ; preds = %29
  %35 = load i32, ptr %8, align 4
  %36 = add i32 %35, 1
  store i32 %36, ptr %8, align 4
  br label %22

37:                                               ; preds = %28
  %38 = load ptr, ptr %5, align 8
  %39 = getelementptr inbounds nuw %struct.mpv_decomp_state, ptr %38, i32 0, i32 1
  store i8 0, ptr %39, align 4
  %40 = load ptr, ptr %5, align 8
  %41 = getelementptr inbounds nuw %struct.mpv_decomp_state, ptr %40, i32 0, i32 2
  store i64 0, ptr %41, align 8
  %42 = load ptr, ptr %5, align 8
  %43 = getelementptr inbounds nuw %struct.mpv_decomp_state, ptr %42, i32 0, i32 0
  store i32 0, ptr %43, align 8
  %44 = load ptr, ptr %5, align 8
  %45 = getelementptr inbounds nuw %struct.mpv_decomp_state, ptr %44, i32 0, i32 3
  %46 = getelementptr inbounds [0 x %struct.mpv_decomp_kilo], ptr %45, i64 0, i64 0
  %47 = getelementptr inbounds nuw %struct.mpv_decomp_kilo, ptr %46, i32 0, i32 1
  store ptr null, ptr %47, align 8
  call void @llvm.lifetime.start.p0(i64 8, ptr %9) #11
  %48 = load ptr, ptr %4, align 8
  %49 = getelementptr inbounds nuw %struct.mq, ptr %48, i32 0, i32 4
  %50 = load ptr, ptr %49, align 8
  %51 = load ptr, ptr %6, align 8
  %52 = getelementptr inbounds nuw %struct.mpv, ptr %51, i32 0, i32 6
  %53 = load i32, ptr %52, align 8
  %54 = zext i32 %53 to i64
  %55 = getelementptr inbounds nuw i8, ptr %50, i64 %54
  store ptr %55, ptr %9, align 8
  call void @llvm.lifetime.start.p0(i64 8, ptr %10) #11
  %56 = load ptr, ptr %4, align 8
  %57 = getelementptr inbounds nuw %struct.mq, ptr %56, i32 0, i32 3
  %58 = load ptr, ptr %57, align 8
  %59 = load ptr, ptr %6, align 8
  %60 = getelementptr inbounds nuw %struct.mpv, ptr %59, i32 0, i32 4
  %61 = load i32, ptr %60, align 16
  %62 = zext i32 %61 to i64
  %63 = getelementptr inbounds nuw i8, ptr %58, i64 %62
  store ptr %63, ptr %10, align 8
  %64 = load ptr, ptr %9, align 8
  %65 = load ptr, ptr %6, align 8
  %66 = getelementptr inbounds nuw %struct.mpv, ptr %65, i32 0, i32 0
  %67 = load i32, ptr %66, align 32
  call void @mmbit_clear(ptr noundef %64, i32 noundef %67)
  %68 = load ptr, ptr %10, align 8
  %69 = load ptr, ptr %6, align 8
  %70 = getelementptr inbounds nuw %struct.mpv, ptr %69, i32 0, i32 0
  %71 = load i32, ptr %70, align 32
  call void @mmbit_clear(ptr noundef %68, i32 noundef %71)
  call void @llvm.lifetime.end.p0(i64 8, ptr %10) #11
  call void @llvm.lifetime.end.p0(i64 8, ptr %9) #11
  call void @llvm.lifetime.end.p0(i64 8, ptr %7) #11
  call void @llvm.lifetime.end.p0(i64 8, ptr %6) #11
  call void @llvm.lifetime.end.p0(i64 8, ptr %5) #11
  ret i8 0
}