; Function Attrs: nofree norecurse nosync nounwind memory(write, argmem: readwrite, inaccessiblemem: none) uwtable
define hidden noundef signext i8 @nfaExecMpv_queueInitState(ptr noundef readonly captures(none) %0, ptr noundef readonly captures(none) %1) local_unnamed_addr #4 {
  %3 = getelementptr inbounds nuw i8, ptr %1, i64 16
  %4 = load ptr, ptr %3, align 8
  %5 = getelementptr inbounds nuw i8, ptr %0, i64 64
  %6 = getelementptr inbounds nuw i8, ptr %0, i64 128
  %7 = load i32, ptr %5, align 32
  %8 = zext i32 %7 to i64
  %9 = shl nuw nsw i64 %8, 6
  %10 = getelementptr inbounds nuw i8, ptr %6, i64 %9
  %11 = getelementptr inbounds nuw i8, ptr %10, i64 12
  %12 = load i32, ptr %11, align 4
  %13 = zext i32 %12 to i64
  %14 = getelementptr inbounds nuw i8, ptr %4, i64 %13
  %15 = getelementptr inbounds nuw i8, ptr %0, i64 68
  %16 = load i32, ptr %15, align 4
  %.not = icmp eq i32 %16, 0
  br i1 %.not, label %._crit_edge, label %.lr.ph

._crit_edge:                                      ; preds = %.lr.ph, %2
  %17 = getelementptr inbounds nuw i8, ptr %4, i64 4
  store i8 0, ptr %17, align 4
  %18 = getelementptr inbounds nuw i8, ptr %4, i64 8
  store i64 0, ptr %18, align 8
  store i32 0, ptr %4, align 8
  %19 = getelementptr inbounds nuw i8, ptr %4, i64 24
  store ptr null, ptr %19, align 8
  %20 = getelementptr inbounds nuw i8, ptr %1, i64 24
  %21 = load ptr, ptr %20, align 8
  %22 = getelementptr inbounds nuw i8, ptr %0, i64 88
  %23 = load i32, ptr %22, align 8
  %24 = zext i32 %23 to i64
  %25 = getelementptr inbounds nuw i8, ptr %21, i64 %24
  %26 = load ptr, ptr %3, align 8
  %27 = getelementptr inbounds nuw i8, ptr %0, i64 80
  %28 = load i32, ptr %27, align 16
  %29 = zext i32 %28 to i64
  %30 = getelementptr inbounds nuw i8, ptr %26, i64 %29
  %31 = load i32, ptr %5, align 32
  %.not.i = icmp eq i32 %31, 0
  br i1 %.not.i, label %mmbit_clear.exit22, label %32

32:                                               ; preds = %._crit_edge
  %33 = icmp ugt i32 %31, 256
  br i1 %33, label %38, label %34

34:                                               ; preds = %32
  %35 = add nuw nsw i32 %31, 7
  %36 = lshr i32 %35, 3
  %37 = zext nneg i32 %36 to i64
  tail call void @llvm.memset.p0.i64(ptr align 1 %25, i8 0, i64 %37, i1 false)
  br label %mmbit_clear.exit

38:                                               ; preds = %32
  store i64 0, ptr %25, align 1
  br label %mmbit_clear.exit

mmbit_clear.exit:                                 ; preds = %34, %38
  %.pr = load i32, ptr %5, align 32
  %.not.i20 = icmp eq i32 %.pr, 0
  br i1 %.not.i20, label %mmbit_clear.exit22, label %39

39:                                               ; preds = %mmbit_clear.exit
  %40 = icmp ugt i32 %.pr, 256
  br i1 %40, label %45, label %41

41:                                               ; preds = %39
  %42 = add nuw nsw i32 %.pr, 7
  %43 = lshr i32 %42, 3
  %44 = zext nneg i32 %43 to i64
  tail call void @llvm.memset.p0.i64(ptr align 1 %30, i8 0, i64 %44, i1 false)
  br label %mmbit_clear.exit22

45:                                               ; preds = %39
  store i64 0, ptr %30, align 1
  br label %mmbit_clear.exit22

mmbit_clear.exit22:                               ; preds = %._crit_edge, %mmbit_clear.exit, %41, %45
  ret i8 0

.lr.ph:                                           ; preds = %2, %.lr.ph
  %indvars.iv = phi i64 [ %indvars.iv.next, %.lr.ph ], [ 0, %2 ]
  %46 = getelementptr inbounds nuw i64, ptr %14, i64 %indvars.iv
  store i64 -1, ptr %46, align 8
  %indvars.iv.next = add nuw nsw i64 %indvars.iv, 1
  %47 = load i32, ptr %15, align 4
  %48 = zext i32 %47 to i64
  %49 = icmp samesign ult i64 %indvars.iv.next, %48
  br i1 %49, label %.lr.ph, label %._crit_edge
}